; Function Attrs: mustprogress nounwind uwtable
define void @_ZN10CmdExtractD2Ev(ptr noundef nonnull align 8 dereferenceable(16800) %0) unnamed_addr #6 align 2 personality ptr @__gxx_personality_v0 {
  %2 = getelementptr inbounds i8, ptr %0, i64 8
  %3 = load i64, ptr %2, align 8
  %.not7.i = icmp eq i64 %3, 0
  br i1 %.not7.i, label %._crit_edge.i, label %.lr.ph.i

.lr.ph.i:                                         ; preds = %1, %9
  %.06.i = phi i64 [ %16, %9 ], [ 0, %1 ]
  %4 = load ptr, ptr %0, align 8
  %5 = getelementptr inbounds %"struct.CmdExtract::ExtractRef", ptr %4, i64 %.06.i, i32 1
  %6 = load ptr, ptr %5, align 8
  %.not.i = icmp eq ptr %6, null
  br i1 %.not.i, label %9, label %7

7:                                                ; preds = %.lr.ph.i
  %8 = invoke noundef zeroext i1 @_Z7DelFilePKw(ptr noundef nonnull %6)
          to label %.noexc unwind label %37

.noexc:                                           ; preds = %7
  %.pre.i = load ptr, ptr %0, align 8
  br label %9

9:                                                ; preds = %.noexc, %.lr.ph.i
  %10 = phi ptr [ %.pre.i, %.noexc ], [ %4, %.lr.ph.i ]
  %11 = getelementptr inbounds %"struct.CmdExtract::ExtractRef", ptr %10, i64 %.06.i
  %12 = load ptr, ptr %11, align 8
  tail call void @free(ptr noundef %12) #18
  %13 = load ptr, ptr %0, align 8
  %14 = getelementptr inbounds %"struct.CmdExtract::ExtractRef", ptr %13, i64 %.06.i, i32 1
  %15 = load ptr, ptr %14, align 8
  tail call void @free(ptr noundef %15) #18
  %16 = add nuw i64 %.06.i, 1
  %17 = load i64, ptr %2, align 8
  %18 = icmp ult i64 %16, %17
  br i1 %18, label %.lr.ph.i, label %._crit_edge.i, !llvm.loop !4

._crit_edge.i:                                    ; preds = %9, %1
  %19 = load ptr, ptr %0, align 8
  %.not.i.i = icmp eq ptr %19, null
  br i1 %.not.i.i, label %21, label %20

20:                                               ; preds = %._crit_edge.i
  tail call void @free(ptr noundef nonnull %19) #18
  store ptr null, ptr %0, align 8
  br label %21

21:                                               ; preds = %20, %._crit_edge.i
  tail call void @llvm.memset.p0.i64(ptr noundef nonnull align 8 dereferenceable(16) %2, i8 0, i64 16, i1 false)
  %22 = getelementptr inbounds i8, ptr %0, i64 32
  %23 = load ptr, ptr %22, align 8
  tail call void @llvm.memset.p0.i64(ptr noundef nonnull align 8 dereferenceable(16400) %23, i8 0, i64 16400, i1 false)
  %24 = getelementptr inbounds i8, ptr %0, i64 336
  %25 = load ptr, ptr %24, align 8
  %26 = icmp eq ptr %25, null
  br i1 %26, label %28, label %27

27:                                               ; preds = %21
  tail call void @_ZN6UnpackD1Ev(ptr noundef nonnull align 8 dereferenceable(59688) %25) #18
  tail call void @_ZdlPv(ptr noundef nonnull %25) #20
  br label %28

28:                                               ; preds = %27, %21
  %29 = load ptr, ptr %22, align 8
  %30 = icmp eq ptr %29, null
  br i1 %30, label %32, label %31

31:                                               ; preds = %28
  tail call void @_ZdlPv(ptr noundef nonnull %29) #20
  br label %32

32:                                               ; preds = %31, %28
  %33 = getelementptr inbounds i8, ptr %0, i64 16768
  tail call void @_ZNSt7__cxx1112basic_stringIwSt11char_traitsIwESaIwEED1Ev(ptr noundef nonnull align 8 dereferenceable(32) %33) #18
  %34 = getelementptr inbounds i8, ptr %0, i64 64
  tail call void @_ZN11ComprDataIOD1Ev(ptr noundef nonnull align 8 dereferenceable(266) %34) #18
  %35 = load ptr, ptr %0, align 8
  %.not.i2 = icmp eq ptr %35, null
  br i1 %.not.i2, label %_ZN5ArrayIN10CmdExtract10ExtractRefEED2Ev.exit, label %36

36:                                               ; preds = %32
  tail call void @free(ptr noundef nonnull %35) #18
  br label %_ZN5ArrayIN10CmdExtract10ExtractRefEED2Ev.exit

_ZN5ArrayIN10CmdExtract10ExtractRefEED2Ev.exit:   ; preds = %32, %36
  ret void

37:                                               ; preds = %7
  %38 = landingpad { ptr, i32 }
          catch ptr null
  %39 = extractvalue { ptr, i32 } %38, 0
  tail call void @__clang_call_terminate(ptr %39) #21
  unreachable
}